; Function Attrs: mustprogress uwtable
define void @_ZNK3gmx21CommandLineHelpModule21createModuleHelpTopicERKNS_18ICommandLineModuleE(ptr dead_on_unwind noalias nocapture writable writeonly sret(%"class.std::unique_ptr.53") align 8 %0, ptr nocapture noundef nonnull readonly align 8 dereferenceable(16) %1, ptr noundef nonnull align 8 dereferenceable(8) %2) local_unnamed_addr #1 align 2 personality ptr @__gxx_personality_v0 {
  %4 = tail call noalias noundef nonnull dereferenceable(24) ptr @_Znwm(i64 noundef 24) #21
  %5 = getelementptr inbounds i8, ptr %1, i64 8
  %6 = load ptr, ptr %5, align 8
  store ptr getelementptr inbounds inrange(-16, 56) ({ [9 x ptr] }, ptr @_ZTVN3gmx12_GLOBAL__N_115ModuleHelpTopicE, i64 0, i32 0, i64 2), ptr %4, align 8
  %7 = getelementptr inbounds i8, ptr %4, i64 8
  store ptr %2, ptr %7, align 8
  %8 = getelementptr inbounds i8, ptr %4, i64 16
  store ptr %6, ptr %8, align 8
  store ptr %4, ptr %0, align 8
  ret void
}